
main.elf:     file format elf32-littlearm


Disassembly of section .text:

00000000 <__vectors>:
   0:	00 20 01 20 89 00 00 00 00 00 00 00 00 00 00 00     . . ............
	...

00000020 <_Z4waiti>:
  20:	2300      	movs	r3, #0
  22:	b082      	sub	sp, #8
  24:	9301      	str	r3, [sp, #4]
  26:	9b01      	ldr	r3, [sp, #4]
  28:	4283      	cmp	r3, r0
  2a:	da02      	bge.n	32 <_Z4waiti+0x12>
  2c:	9b01      	ldr	r3, [sp, #4]
  2e:	3301      	adds	r3, #1
  30:	e7f8      	b.n	24 <_Z4waiti+0x4>
  32:	b002      	add	sp, #8
  34:	4770      	bx	lr
	...

00000038 <main>:
  38:	b508      	push	{r3, lr}
  3a:	4b0f      	ldr	r3, [pc, #60]	; (78 <main+0x40>)
  3c:	781a      	ldrb	r2, [r3, #0]
  3e:	b95a      	cbnz	r2, 58 <main+0x20>
  40:	2201      	movs	r2, #1
  42:	701a      	strb	r2, [r3, #0]
  44:	f44f 4200 	mov.w	r2, #32768	; 0x8000
  48:	4b0c      	ldr	r3, [pc, #48]	; (7c <main+0x44>)
  4a:	605a      	str	r2, [r3, #4]
  4c:	f44f 32fc 	mov.w	r2, #129024	; 0x1f800
  50:	f5a3 53a2 	sub.w	r3, r3, #5184	; 0x1440
  54:	3b10      	subs	r3, #16
  56:	611a      	str	r2, [r3, #16]
  58:	f04f 6100 	mov.w	r1, #134217728	; 0x8000000
  5c:	460c      	mov	r4, r1
  5e:	4a08      	ldr	r2, [pc, #32]	; (80 <main+0x48>)
  60:	6111      	str	r1, [r2, #16]
  62:	6314      	str	r4, [r2, #48]	; 0x30
  64:	f24c 3050 	movw	r0, #50000	; 0xc350
  68:	f7ff ffda 	bl	20 <_Z4waiti>
  6c:	4805      	ldr	r0, [pc, #20]	; (84 <main+0x4c>)
  6e:	6351      	str	r1, [r2, #52]	; 0x34
  70:	f7ff ffd6 	bl	20 <_Z4waiti>
  74:	e7f5      	b.n	62 <main+0x2a>
  76:	bf00      	nop
  78:	20012000 	.word	0x20012000
  7c:	400e1a50 	.word	0x400e1a50
  80:	400e1000 	.word	0x400e1000
  84:	00030d40 	.word	0x00030d40

00000088 <__startup>:
  88:	2100      	movs	r1, #0
  8a:	b508      	push	{r3, lr}
  8c:	4a0b      	ldr	r2, [pc, #44]	; (bc <__startup+0x34>)
  8e:	4b0c      	ldr	r3, [pc, #48]	; (c0 <__startup+0x38>)
  90:	4293      	cmp	r3, r2
  92:	d10a      	bne.n	aa <__startup+0x22>
  94:	2200      	movs	r2, #0
  96:	490b      	ldr	r1, [pc, #44]	; (c4 <__startup+0x3c>)
  98:	4b0b      	ldr	r3, [pc, #44]	; (c8 <__startup+0x40>)
  9a:	480c      	ldr	r0, [pc, #48]	; (cc <__startup+0x44>)
  9c:	1a5b      	subs	r3, r3, r1
  9e:	089b      	lsrs	r3, r3, #2
  a0:	429a      	cmp	r2, r3
  a2:	d105      	bne.n	b0 <__startup+0x28>
  a4:	f7ff ffc8 	bl	38 <main>
  a8:	e7fe      	b.n	a8 <__startup+0x20>
  aa:	f843 1b04 	str.w	r1, [r3], #4
  ae:	e7ef      	b.n	90 <__startup+0x8>
  b0:	f850 4022 	ldr.w	r4, [r0, r2, lsl #2]
  b4:	f841 4022 	str.w	r4, [r1, r2, lsl #2]
  b8:	3201      	adds	r2, #1
  ba:	e7f1      	b.n	a0 <__startup+0x18>
  bc:	20012004 	.word	0x20012004
  c0:	20012000 	.word	0x20012000
  c4:	20012004 	.word	0x20012004
  c8:	20012004 	.word	0x20012004
  cc:	000000d0 	.word	0x000000d0
